; Function Attrs: nounwind uwtable
define i32 @uriParseSingleUriA(ptr noundef %0, ptr noundef %1, ptr noundef writeonly captures(address_is_null) %2) local_unnamed_addr #0 {
  %4 = alloca %struct.UriParserStateStructA, align 8
  %.not = icmp eq ptr %1, null
  br i1 %.not, label %.thread, label %5

.thread:                                          ; preds = %3
  call void @llvm.lifetime.start.p0(i64 32, ptr nonnull %4) #7
  br label %uriParseSingleUriExA.exit

5:                                                ; preds = %3
  %6 = tail call i64 @strlen(ptr noundef nonnull dereferenceable(1) %1) #8
  call void @llvm.lifetime.start.p0(i64 32, ptr nonnull %4) #7
  %7 = icmp eq ptr %0, null
  br i1 %7, label %uriParseSingleUriExA.exit, label %8

8:                                                ; preds = %5
  %9 = getelementptr inbounds nuw i8, ptr %1, i64 %6
  store ptr %0, ptr %4, align 8, !tbaa !3
  %10 = call fastcc i32 @uriParseUriExMmA(ptr noundef nonnull %4, ptr noundef nonnull %1, ptr noundef nonnull %9, ptr noundef nonnull @defaultMemoryManager)
  %.not24.i.i = icmp eq i32 %10, 0
  br i1 %.not24.i.i, label %uriParseSingleUriExA.exit, label %11

11:                                               ; preds = %8
  %.not25.i.i = icmp eq ptr %2, null
  br i1 %.not25.i.i, label %15, label %12

12:                                               ; preds = %11
  %13 = getelementptr inbounds nuw i8, ptr %4, i64 16
  %14 = load ptr, ptr %13, align 8, !tbaa !28
  store ptr %14, ptr %2, align 8, !tbaa !30
  br label %15

15:                                               ; preds = %12, %11
  %16 = call i32 @uriFreeUriMembersMmA(ptr noundef nonnull %0, ptr noundef nonnull @defaultMemoryManager)
  br label %uriParseSingleUriExA.exit

uriParseSingleUriExA.exit:                        ; preds = %.thread, %5, %8, %15
  %.0.i.i = phi i32 [ 2, %5 ], [ %10, %15 ], [ 0, %8 ], [ 2, %.thread ]
  call void @llvm.lifetime.end.p0(i64 32, ptr nonnull %4) #7
  ret i32 %.0.i.i
}